Certificate:
    Data:
        Version: 3 (0x2)
        Serial Number: 1 (0x1)
    Signature Algorithm: sha256WithRSAEncryption
        Issuer: C=IL, L=PetahTikva, O=Nick.org, OU=dev, CN=Nick Levin/emailAddress=Kolya666kv@gmail.com
        Validity
            Not Before: Sep  5 11:20:40 2018 GMT
            Not After : Jun  1 11:20:40 2021 GMT
        Subject: C=IL, L=PetahTikva, O=Nick.org, CN=Nick Levin
        Subject Public Key Info:
            Public Key Algorithm: rsaEncryption
                Public-Key: (2048 bit)
                Modulus:
                    00:ae:a1:8a:4f:81:31:c9:18:4e:49:85:17:87:b6:
                    04:b5:49:ca:93:e1:db:cc:da:12:90:45:eb:ba:9b:
                    4f:dc:f1:51:0c:42:90:74:6b:28:1a:a3:e4:1c:06:
                    51:50:94:95:ef:81:68:ec:95:94:e3:13:e7:33:74:
                    32:54:06:e2:4f:3f:46:8c:20:2d:4a:83:96:98:92:
                    6b:36:b7:72:2c:78:bb:20:19:d6:ae:30:8f:b0:49:
                    7f:f3:08:03:93:95:0a:4f:32:c5:db:de:82:43:ca:
                    fd:b7:87:b5:52:4e:81:02:2a:81:18:f4:bb:4f:2e:
                    7c:19:55:0b:be:b9:41:35:e0:09:45:de:39:b8:1a:
                    4e:d7:c4:22:51:9e:fc:42:30:87:ab:4c:d3:51:81:
                    97:91:a0:f6:67:e8:f8:b7:51:0b:a9:43:36:00:fb:
                    54:c3:7f:9c:90:69:a0:96:98:cb:29:14:d6:cf:07:
                    bb:7d:ed:7f:27:d0:2b:38:99:ff:fa:cb:50:2a:e5:
                    af:53:48:91:84:5a:d8:18:06:6f:5c:37:53:43:5e:
                    fd:ea:ba:6c:08:bd:30:b4:37:dd:03:6f:b6:3c:35:
                    05:d5:5f:ea:8c:1a:77:a9:08:1e:68:56:5b:85:a5:
                    a4:6c:0e:6d:4e:2f:12:81:46:67:e8:ec:86:97:c9:
                    e2:23
                Exponent: 65537 (0x10001)
        X509v3 extensions:
            X509v3 Subject Key Identifier: 
                62:AB:B1:29:31:48:EA:A2:2A:4F:B6:13:AC:58:A0:50:16:C2:ED:D0
            X509v3 Authority Key Identifier: 
                keyid:C2:CC:AE:BB:29:FE:D6:1B:CE:52:1E:B3:02:35:F4:7C:5A:CD:65:9A

            X509v3 Basic Constraints: 
                CA:FALSE
            X509v3 Key Usage: 
                Digital Signature, Key Encipherment
            X509v3 Subject Alternative Name: 
                DNS:example.com, DNS:www.example.com, DNS:mail.example.com, DNS:ftp.example.com
            Netscape Comment: 
                OpenSSL Generated Certificate
    Signature Algorithm: sha256WithRSAEncryption
         62:6c:fd:8e:a1:bd:a6:4e:19:74:39:65:e0:fb:2c:83:3d:2e:
         04:b2:36:22:76:f1:43:0e:52:14:3a:f5:26:d9:06:2f:a3:f1:
         f2:8c:c2:aa:d8:82:bf:2c:44:98:24:b5:e7:b5:14:94:5f:47:
         1a:8a:88:b0:dc:a5:37:27:70:25:61:b6:8b:1f:73:44:76:41:
         17:b1:bf:d9:e8:72:25:6f:a3:71:03:3a:b2:a4:e2:65:99:9c:
         aa:f9:51:43:39:34:89:ff:35:e5:83:ac:85:32:1d:9f:e1:dd:
         74:98:f5:41:c5:f9:33:ba:57:73:3a:f8:86:6f:6e:58:bf:c1:
         f3:5a:09:dd:ff:3a:e7:15:b3:68:39:cf:91:08:11:ee:4f:85:
         5d:c9:2e:fb:74:4f:48:a5:28:80:7b:3e:41:11:9c:8b:04:ac:
         c4:44:20:21:83:79:6f:bd:60:2b:ce:63:ce:7f:1e:ba:87:18:
         f8:93:93:48:0a:da:63:68:cf:26:49:bd:75:8f:1b:30:af:ab:
         cd:be:ed:1b:1e:db:9d:fe:4e:16:29:16:fe:d6:ad:f5:70:aa:
         0a:95:8e:61:d4:8b:9c:b8:84:b1:42:da:ae:17:05:49:e7:3f:
         63:81:0f:28:69:50:b5:40:cd:10:12:a3:6a:24:78:d1:12:26:
         3b:c5:10:38:ae:26:28:bb:9b:b9:2b:a4:25:12:70:19:6c:8b:
         5f:c9:aa:a1:10:b1:ca:02:3f:dd:7f:5d:4c:f7:e6:f2:d8:a3:
         22:3d:93:32:88:88:e8:9a:bd:bd:15:de:c1:2d:1c:b9:cd:3b:
         d9:26:e4:73:4a:4d:5f:43:d5:67:6c:29:0c:94:25:f3:45:68:
         2b:01:fe:bc:65:77:98:ac:38:e6:9e:79:e8:45:ca:65:90:17:
         38:70:55:8b:82:ec:45:34:e8:ad:97:29:fa:ab:50:5c:13:87:
         46:c2:9c:70:c8:fb:23:d5:70:e6:0c:e7:80:87:9e:fb:31:e0:
         68:af:a4:8a:2c:2f:9b:be:d8:af:26:92:17:13:6d:a2:65:ea:
         01:8a:50:b5:7b:cf:0d:e2:ef:9e:e0:f0:30:3d:d2:b3:6f:0c:
         b4:74:7f:fc:21:35:bf:51:1b:4f:26:71:3d:37:5c:b3:23:a5:
         29:a1:ee:cd:f2:8e:39:78:2a:f5:e2:59:17:8f:3b:88:09:46:
         b3:ce:0e:87:d2:8f:0b:2e:85:72:94:b8:40:9a:44:95:37:0c:
         3c:dc:79:5c:13:68:b8:6a:0a:24:f9:37:3f:61:03:a5:4a:52:
         ec:f1:36:b5:75:bb:91:09:44:6f:e7:0d:dc:40:3c:90:55:74:
         47:f3:a2:ab:27:87:4d:aa
-----BEGIN CERTIFICATE-----
MIIFGDCCAwCgAwIBAgIBATANBgkqhkiG9w0BAQsFADB9MQswCQYDVQQGEwJJTDET
MBEGA1UEBwwKUGV0YWhUaWt2YTERMA8GA1UECgwITmljay5vcmcxDDAKBgNVBAsM
A2RldjETMBEGA1UEAwwKTmljayBMZXZpbjEjMCEGCSqGSIb3DQEJARYUS29seWE2
NjZrdkBnbWFpbC5jb20wHhcNMTgwOTA1MTEyMDQwWhcNMjEwNjAxMTEyMDQwWjBK
MQswCQYDVQQGEwJJTDETMBEGA1UEBwwKUGV0YWhUaWt2YTERMA8GA1UECgwITmlj
ay5vcmcxEzARBgNVBAMMCk5pY2sgTGV2aW4wggEiMA0GCSqGSIb3DQEBAQUAA4IB
DwAwggEKAoIBAQCuoYpPgTHJGE5JhReHtgS1ScqT4dvM2hKQReu6m0/c8VEMQpB0
aygao+QcBlFQlJXvgWjslZTjE+czdDJUBuJPP0aMIC1Kg5aYkms2t3IseLsgGdau
MI+wSX/zCAOTlQpPMsXb3oJDyv23h7VSToECKoEY9LtPLnwZVQu+uUE14AlF3jm4
Gk7XxCJRnvxCMIerTNNRgZeRoPZn6Pi3UQupQzYA+1TDf5yQaaCWmMspFNbPB7t9
7X8n0Cs4mf/6y1Aq5a9TSJGEWtgYBm9cN1NDXv3qumwIvTC0N90Db7Y8NQXVX+qM
GnepCB5oVluFpaRsDm1OLxKBRmfo7IaXyeIjAgMBAAGjgdUwgdIwHQYDVR0OBBYE
FGKrsSkxSOqiKk+2E6xYoFAWwu3QMB8GA1UdIwQYMBaAFMLMrrsp/tYbzlIeswI1
9HxazWWaMAkGA1UdEwQCMAAwCwYDVR0PBAQDAgWgMEoGA1UdEQRDMEGCC2V4YW1w
bGUuY29tgg93d3cuZXhhbXBsZS5jb22CEG1haWwuZXhhbXBsZS5jb22CD2Z0cC5l
eGFtcGxlLmNvbTAsBglghkgBhvhCAQ0EHxYdT3BlblNTTCBHZW5lcmF0ZWQgQ2Vy
dGlmaWNhdGUwDQYJKoZIhvcNAQELBQADggIBAGJs/Y6hvaZOGXQ5ZeD7LIM9LgSy
NiJ28UMOUhQ69SbZBi+j8fKMwqrYgr8sRJgktee1FJRfRxqKiLDcpTcncCVhtosf
c0R2QRexv9nociVvo3EDOrKk4mWZnKr5UUM5NIn/NeWDrIUyHZ/h3XSY9UHF+TO6
V3M6+IZvbli/wfNaCd3/OucVs2g5z5EIEe5PhV3JLvt0T0ilKIB7PkERnIsErMRE
ICGDeW+9YCvOY85/HrqHGPiTk0gK2mNozyZJvXWPGzCvq82+7Rse253+ThYpFv7W
rfVwqgqVjmHUi5y4hLFC2q4XBUnnP2OBDyhpULVAzRASo2okeNESJjvFEDiuJii7
m7krpCUScBlsi1/JqqEQscoCP91/XUz35vLYoyI9kzKIiOiavb0V3sEtHLnNO9km
5HNKTV9D1WdsKQyUJfNFaCsB/rxld5isOOaeeehFymWQFzhwVYuC7EU06K2XKfqr
UFwTh0bCnHDI+yPVcOYM54CHnvsx4GivpIosL5u+2K8mkhcTbaJl6gGKULV7zw3i
757g8DA90rNvDLR0f/whNb9RG08mcT03XLMjpSmh7s3yjjl4KvXiWRePO4gJRrPO
DofSjwsuhXKUuECaRJU3DDzceVwTaLhqCiT5Nz9hA6VKUuzxNrV1u5EJRG/nDdxA
PJBVdEfzoqsnh02q
-----END CERTIFICATE-----
